target datalayout = "e-m:e-p270:32:32-p271:32:32-p272:64:64-i64:64-i128:128-f80:128-n8:16:32:64-S128"
target triple = "x86_64-pc-linux-gnu"

%struct.ScanTable = type { ptr, [64 x i8], [64 x i8] }
%struct.MpegEncContext = type { ptr, i32, i32, i32, [12 x i32], i32, %struct.ScanTable, %struct.ScanTable, [64 x i8], [64 x i8], ptr, ptr, i32, i32, i32, i32, i32, i32, i32, i32, i32, i32, i32, i32, i32, i32, i32, i32, i32, i32, i32, i32, i64, i64, ptr, %struct.BufferPoolContext, i32, i32, %union.anon, i32, %struct.MPVWorkPicture, %struct.MPVWorkPicture, %struct.MPVWorkPicture, i32, [3 x i32], ptr, [3 x ptr], ptr, ptr, ptr, ptr, ptr, ptr, [3 x ptr], i32, ptr, ptr, ptr, ptr, %struct.ScratchpadContext, i32, i32, i32, i32, i32, i32, %struct.BlockDSPContext, %struct.H264ChromaContext, %struct.HpelDSPContext, %struct.IDCTDSPContext, %struct.QpelDSPContext, %struct.VideoDSPContext, %struct.H263DSPContext, ptr, [2 x [2 x ptr]], i32, i32, [2 x [4 x [2 x i32]]], [2 x [2 x i32]], [2 x [2 x [2 x i32]]], [2 x [64 x i16]], i32, i32, i32, i32, i32, [6 x i32], [6 x i32], [3 x ptr], ptr, [64 x i16], [64 x i16], [64 x i16], [64 x i16], i32, i32, %struct.GetBitContext, i32, i32, i32, i32, i32, i32, i32, i32, i32, i32, i32, i32, i32, i32, i32, i64, i64, i16, i16, i16, i16, i32, i32, i32, i32, i32, i32, i32, i32, i32, [3 x i32], i32, i32, i32, i32, i32, i32, %struct.GetBitContext, i32, [2 x [2 x i32]], i32, i32, i32, i32, i32, i32, i32, i32, i32, i32, i32, i32, i32, i32, [2 x i32], i32, i32, ptr, ptr, ptr, ptr, ptr, i32, i32, %struct.ERContext }
%struct.BufferPoolContext = type { ptr, ptr, ptr, ptr, ptr, i32, i32, i32 }
%union.anon = type { [32 x ptr] }
%struct.MPVWorkPicture = type { [3 x ptr], [3 x i64], ptr, ptr, [2 x ptr], ptr, ptr, [2 x ptr], i32 }
%struct.ScratchpadContext = type { ptr, ptr, %union.anon.0, i32 }
%union.anon.0 = type { ptr }
%struct.BlockDSPContext = type { ptr, ptr, [2 x ptr] }
%struct.H264ChromaContext = type { [4 x ptr], [4 x ptr] }
%struct.HpelDSPContext = type { [4 x [4 x ptr]], [4 x [4 x ptr]], [4 x [4 x ptr]], [4 x ptr] }
%struct.IDCTDSPContext = type { ptr, ptr, ptr, ptr, ptr, ptr, [64 x i8], i32, i32 }
%struct.QpelDSPContext = type { [2 x [16 x ptr]], [2 x [16 x ptr]], [2 x [16 x ptr]] }
%struct.VideoDSPContext = type { ptr, ptr }
%struct.H263DSPContext = type { ptr, ptr }
%struct.GetBitContext = type { ptr, ptr, i32, i32, i32 }
%struct.ERContext = type { ptr, ptr, i32, ptr, i32, i32, i32, i64, i64, i32, i32, ptr, ptr, [3 x ptr], ptr, ptr, [2 x [4 x [2 x i32]]], %struct.ERPicture, %struct.ERPicture, %struct.ERPicture, [2 x ptr], [2 x ptr], i16, i16, i32, i32, ptr, ptr }
%struct.ERPicture = type { ptr, ptr, ptr, [2 x ptr], [2 x ptr], ptr, i32 }
%struct.AVCodecContext = type { ptr, i32, i32, ptr, i32, i32, ptr, ptr, ptr, i64, i32, i32, ptr, i32, %struct.AVRational, %struct.AVRational, %struct.AVRational, i32, i32, i32, i32, i32, %struct.AVRational, i32, i32, i32, i32, i32, i32, i32, i32, i32, i32, i32, ptr, ptr, i32, float, float, float, float, float, float, float, float, float, i32, i32, i32, i32, i32, i32, i32, i32, i32, i32, i32, i32, ptr, ptr, ptr, i32, i32, i32, i32, i32, i32, i32, i32, i32, i32, %struct.AVChannelLayout, i32, i32, i32, i32, i32, i32, i32, i32, ptr, i32, i32, i32, float, float, i32, i32, i32, i32, i32, ptr, i64, i64, float, float, i32, i32, ptr, ptr, i32, i32, i32, i32, i32, ptr, ptr, ptr, ptr, i32, i32, [8 x i64], i32, i32, i32, i32, i32, i32, i32, ptr, ptr, i32, i32, i32, i32, i32, i32, i32, i32, i32, i32, ptr, ptr, i32, i32, ptr, ptr, ptr, ptr, i32, i32, i64, i32, i32, i64, ptr, i64, ptr, i32, ptr, i32 }
%struct.AVRational = type { i32, i32 }
%struct.AVChannelLayout = type { i32, i32, %union.anon.1, ptr }
%union.anon.1 = type { i64 }

; Function Attrs: nounwind uwtable
define void @ff_init_block_index(ptr noundef %0) #3 {
  %2 = alloca ptr, align 8
  %3 = alloca i32, align 4
  %4 = alloca i32, align 4
  %5 = alloca i32, align 4
  %6 = alloca i32, align 4
  store ptr %0, ptr %2, align 8, !tbaa !18
  call void @llvm.lifetime.start.p0(i64 4, ptr %3) #7
  %7 = load ptr, ptr %2, align 8, !tbaa !18
  %8 = getelementptr inbounds nuw %struct.MpegEncContext, ptr %7, i32 0, i32 42
  %9 = getelementptr inbounds nuw %struct.MPVWorkPicture, ptr %8, i32 0, i32 1
  %10 = getelementptr inbounds [3 x i64], ptr %9, i64 0, i64 0
  %11 = load i64, ptr %10, align 8, !tbaa !52
  %12 = trunc i64 %11 to i32
  store i32 %12, ptr %3, align 4, !tbaa !13
  call void @llvm.lifetime.start.p0(i64 4, ptr %4) #7
  %13 = load ptr, ptr %2, align 8, !tbaa !18
  %14 = getelementptr inbounds nuw %struct.MpegEncContext, ptr %13, i32 0, i32 42
  %15 = getelementptr inbounds nuw %struct.MPVWorkPicture, ptr %14, i32 0, i32 1
  %16 = getelementptr inbounds [3 x i64], ptr %15, i64 0, i64 1
  %17 = load i64, ptr %16, align 8, !tbaa !52
  %18 = trunc i64 %17 to i32
  store i32 %18, ptr %4, align 4, !tbaa !13
  call void @llvm.lifetime.start.p0(i64 4, ptr %5) #7
  %19 = load ptr, ptr %2, align 8, !tbaa !18
  %20 = getelementptr inbounds nuw %struct.MpegEncContext, ptr %19, i32 0, i32 10
  %21 = load ptr, ptr %20, align 8, !tbaa !48
  %22 = getelementptr inbounds nuw %struct.AVCodecContext, ptr %21, i32 0, i32 115
  %23 = load i32, ptr %22, align 4, !tbaa !126
  %24 = icmp sgt i32 %23, 8
  %25 = zext i1 %24 to i32
  %26 = add nsw i32 4, %25
  %27 = load ptr, ptr %2, align 8, !tbaa !18
  %28 = getelementptr inbounds nuw %struct.MpegEncContext, ptr %27, i32 0, i32 10
  %29 = load ptr, ptr %28, align 8, !tbaa !48
  %30 = getelementptr inbounds nuw %struct.AVCodecContext, ptr %29, i32 0, i32 130
  %31 = load i32, ptr %30, align 4, !tbaa !137
  %32 = sub nsw i32 %26, %31
  store i32 %32, ptr %5, align 4, !tbaa !13
  call void @llvm.lifetime.start.p0(i64 4, ptr %6) #7
  %33 = load ptr, ptr %2, align 8, !tbaa !18
  %34 = getelementptr inbounds nuw %struct.MpegEncContext, ptr %33, i32 0, i32 10
  %35 = load ptr, ptr %34, align 8, !tbaa !48
  %36 = getelementptr inbounds nuw %struct.AVCodecContext, ptr %35, i32 0, i32 130
  %37 = load i32, ptr %36, align 4, !tbaa !137
  %38 = sub nsw i32 4, %37
  store i32 %38, ptr %6, align 4, !tbaa !13
  %39 = load ptr, ptr %2, align 8, !tbaa !18
  %40 = getelementptr inbounds nuw %struct.MpegEncContext, ptr %39, i32 0, i32 28
  %41 = load i32, ptr %40, align 8, !tbaa !62
  %42 = load ptr, ptr %2, align 8, !tbaa !18
  %43 = getelementptr inbounds nuw %struct.MpegEncContext, ptr %42, i32 0, i32 83
  %44 = load i32, ptr %43, align 8, !tbaa !136
  %45 = mul nsw i32 %44, 2
  %46 = mul nsw i32 %41, %45
  %47 = sub nsw i32 %46, 2
  %48 = load ptr, ptr %2, align 8, !tbaa !18
  %49 = getelementptr inbounds nuw %struct.MpegEncContext, ptr %48, i32 0, i32 82
  %50 = load i32, ptr %49, align 4, !tbaa !135
  %51 = mul nsw i32 %50, 2
  %52 = add nsw i32 %47, %51
  %53 = load ptr, ptr %2, align 8, !tbaa !18
  %54 = getelementptr inbounds nuw %struct.MpegEncContext, ptr %53, i32 0, i32 86
  %55 = getelementptr inbounds [6 x i32], ptr %54, i64 0, i64 0
  store i32 %52, ptr %55, align 4, !tbaa !13
  %56 = load ptr, ptr %2, align 8, !tbaa !18
  %57 = getelementptr inbounds nuw %struct.MpegEncContext, ptr %56, i32 0, i32 28
  %58 = load i32, ptr %57, align 8, !tbaa !62
  %59 = load ptr, ptr %2, align 8, !tbaa !18
  %60 = getelementptr inbounds nuw %struct.MpegEncContext, ptr %59, i32 0, i32 83
  %61 = load i32, ptr %60, align 8, !tbaa !136
  %62 = mul nsw i32 %61, 2
  %63 = mul nsw i32 %58, %62
  %64 = sub nsw i32 %63, 1
  %65 = load ptr, ptr %2, align 8, !tbaa !18
  %66 = getelementptr inbounds nuw %struct.MpegEncContext, ptr %65, i32 0, i32 82
  %67 = load i32, ptr %66, align 4, !tbaa !135
  %68 = mul nsw i32 %67, 2
  %69 = add nsw i32 %64, %68
  %70 = load ptr, ptr %2, align 8, !tbaa !18
  %71 = getelementptr inbounds nuw %struct.MpegEncContext, ptr %70, i32 0, i32 86
  %72 = getelementptr inbounds [6 x i32], ptr %71, i64 0, i64 1
  store i32 %69, ptr %72, align 4, !tbaa !13
  %73 = load ptr, ptr %2, align 8, !tbaa !18
  %74 = getelementptr inbounds nuw %struct.MpegEncContext, ptr %73, i32 0, i32 28
  %75 = load i32, ptr %74, align 8, !tbaa !62
  %76 = load ptr, ptr %2, align 8, !tbaa !18
  %77 = getelementptr inbounds nuw %struct.MpegEncContext, ptr %76, i32 0, i32 83
  %78 = load i32, ptr %77, align 8, !tbaa !136
  %79 = mul nsw i32 %78, 2
  %80 = add nsw i32 %79, 1
  %81 = mul nsw i32 %75, %80
  %82 = sub nsw i32 %81, 2
  %83 = load ptr, ptr %2, align 8, !tbaa !18
  %84 = getelementptr inbounds nuw %struct.MpegEncContext, ptr %83, i32 0, i32 82
  %85 = load i32, ptr %84, align 4, !tbaa !135
  %86 = mul nsw i32 %85, 2
  %87 = add nsw i32 %82, %86
  %88 = load ptr, ptr %2, align 8, !tbaa !18
  %89 = getelementptr inbounds nuw %struct.MpegEncContext, ptr %88, i32 0, i32 86
  %90 = getelementptr inbounds [6 x i32], ptr %89, i64 0, i64 2
  store i32 %87, ptr %90, align 4, !tbaa !13
  %91 = load ptr, ptr %2, align 8, !tbaa !18
  %92 = getelementptr inbounds nuw %struct.MpegEncContext, ptr %91, i32 0, i32 28
  %93 = load i32, ptr %92, align 8, !tbaa !62
  %94 = load ptr, ptr %2, align 8, !tbaa !18
  %95 = getelementptr inbounds nuw %struct.MpegEncContext, ptr %94, i32 0, i32 83
  %96 = load i32, ptr %95, align 8, !tbaa !136
  %97 = mul nsw i32 %96, 2
  %98 = add nsw i32 %97, 1
  %99 = mul nsw i32 %93, %98
  %100 = sub nsw i32 %99, 1
  %101 = load ptr, ptr %2, align 8, !tbaa !18
  %102 = getelementptr inbounds nuw %struct.MpegEncContext, ptr %101, i32 0, i32 82
  %103 = load i32, ptr %102, align 4, !tbaa !135
  %104 = mul nsw i32 %103, 2
  %105 = add nsw i32 %100, %104
  %106 = load ptr, ptr %2, align 8, !tbaa !18
  %107 = getelementptr inbounds nuw %struct.MpegEncContext, ptr %106, i32 0, i32 86
  %108 = getelementptr inbounds [6 x i32], ptr %107, i64 0, i64 3
  store i32 %105, ptr %108, align 4, !tbaa !13
  %109 = load ptr, ptr %2, align 8, !tbaa !18
  %110 = getelementptr inbounds nuw %struct.MpegEncContext, ptr %109, i32 0, i32 27
  %111 = load i32, ptr %110, align 4, !tbaa !63
  %112 = load ptr, ptr %2, align 8, !tbaa !18
  %113 = getelementptr inbounds nuw %struct.MpegEncContext, ptr %112, i32 0, i32 83
  %114 = load i32, ptr %113, align 8, !tbaa !136
  %115 = add nsw i32 %114, 1
  %116 = mul nsw i32 %111, %115
  %117 = load ptr, ptr %2, align 8, !tbaa !18
  %118 = getelementptr inbounds nuw %struct.MpegEncContext, ptr %117, i32 0, i32 28
  %119 = load i32, ptr %118, align 8, !tbaa !62
  %120 = load ptr, ptr %2, align 8, !tbaa !18
  %121 = getelementptr inbounds nuw %struct.MpegEncContext, ptr %120, i32 0, i32 26
  %122 = load i32, ptr %121, align 8, !tbaa !53
  %123 = mul nsw i32 %119, %122
  %124 = mul nsw i32 %123, 2
  %125 = add nsw i32 %116, %124
  %126 = load ptr, ptr %2, align 8, !tbaa !18
  %127 = getelementptr inbounds nuw %struct.MpegEncContext, ptr %126, i32 0, i32 82
  %128 = load i32, ptr %127, align 4, !tbaa !135
  %129 = add nsw i32 %125, %128
  %130 = sub nsw i32 %129, 1
  %131 = load ptr, ptr %2, align 8, !tbaa !18
  %132 = getelementptr inbounds nuw %struct.MpegEncContext, ptr %131, i32 0, i32 86
  %133 = getelementptr inbounds [6 x i32], ptr %132, i64 0, i64 4
  store i32 %130, ptr %133, align 4, !tbaa !13
  %134 = load ptr, ptr %2, align 8, !tbaa !18
  %135 = getelementptr inbounds nuw %struct.MpegEncContext, ptr %134, i32 0, i32 27
  %136 = load i32, ptr %135, align 4, !tbaa !63
  %137 = load ptr, ptr %2, align 8, !tbaa !18
  %138 = getelementptr inbounds nuw %struct.MpegEncContext, ptr %137, i32 0, i32 83
  %139 = load i32, ptr %138, align 8, !tbaa !136
  %140 = load ptr, ptr %2, align 8, !tbaa !18
  %141 = getelementptr inbounds nuw %struct.MpegEncContext, ptr %140, i32 0, i32 26
  %142 = load i32, ptr %141, align 8, !tbaa !53
  %143 = add nsw i32 %139, %142
  %144 = add nsw i32 %143, 2
  %145 = mul nsw i32 %136, %144
  %146 = load ptr, ptr %2, align 8, !tbaa !18
  %147 = getelementptr inbounds nuw %struct.MpegEncContext, ptr %146, i32 0, i32 28
  %148 = load i32, ptr %147, align 8, !tbaa !62
  %149 = load ptr, ptr %2, align 8, !tbaa !18
  %150 = getelementptr inbounds nuw %struct.MpegEncContext, ptr %149, i32 0, i32 26
  %151 = load i32, ptr %150, align 8, !tbaa !53
  %152 = mul nsw i32 %148, %151
  %153 = mul nsw i32 %152, 2
  %154 = add nsw i32 %145, %153
  %155 = load ptr, ptr %2, align 8, !tbaa !18
  %156 = getelementptr inbounds nuw %struct.MpegEncContext, ptr %155, i32 0, i32 82
  %157 = load i32, ptr %156, align 4, !tbaa !135
  %158 = add nsw i32 %154, %157
  %159 = sub nsw i32 %158, 1
  %160 = load ptr, ptr %2, align 8, !tbaa !18
  %161 = getelementptr inbounds nuw %struct.MpegEncContext, ptr %160, i32 0, i32 86
  %162 = getelementptr inbounds [6 x i32], ptr %161, i64 0, i64 5
  store i32 %159, ptr %162, align 4, !tbaa !13
  %163 = load ptr, ptr %2, align 8, !tbaa !18
  %164 = getelementptr inbounds nuw %struct.MpegEncContext, ptr %163, i32 0, i32 42
  %165 = getelementptr inbounds nuw %struct.MPVWorkPicture, ptr %164, i32 0, i32 0
  %166 = getelementptr inbounds [3 x ptr], ptr %165, i64 0, i64 0
  %167 = load ptr, ptr %166, align 8, !tbaa !4
  %168 = load ptr, ptr %2, align 8, !tbaa !18
  %169 = getelementptr inbounds nuw %struct.MpegEncContext, ptr %168, i32 0, i32 82
  %170 = load i32, ptr %169, align 4, !tbaa !135
  %171 = sub i32 %170, 1
  %172 = load i32, ptr %5, align 4, !tbaa !13
  %173 = shl i32 %171, %172
  %174 = sext i32 %173 to i64
  %175 = getelementptr inbounds i8, ptr %167, i64 %174
  %176 = load ptr, ptr %2, align 8, !tbaa !18
  %177 = getelementptr inbounds nuw %struct.MpegEncContext, ptr %176, i32 0, i32 88
  %178 = getelementptr inbounds [3 x ptr], ptr %177, i64 0, i64 0
  store ptr %175, ptr %178, align 8, !tbaa !4
  %179 = load ptr, ptr %2, align 8, !tbaa !18
  %180 = getelementptr inbounds nuw %struct.MpegEncContext, ptr %179, i32 0, i32 42
  %181 = getelementptr inbounds nuw %struct.MPVWorkPicture, ptr %180, i32 0, i32 0
  %182 = getelementptr inbounds [3 x ptr], ptr %181, i64 0, i64 1
  %183 = load ptr, ptr %182, align 8, !tbaa !4
  %184 = load ptr, ptr %2, align 8, !tbaa !18
  %185 = getelementptr inbounds nuw %struct.MpegEncContext, ptr %184, i32 0, i32 82
  %186 = load i32, ptr %185, align 4, !tbaa !135
  %187 = sub i32 %186, 1
  %188 = load i32, ptr %5, align 4, !tbaa !13
  %189 = load ptr, ptr %2, align 8, !tbaa !18
  %190 = getelementptr inbounds nuw %struct.MpegEncContext, ptr %189, i32 0, i32 148
  %191 = load i32, ptr %190, align 8, !tbaa !138
  %192 = sub nsw i32 %188, %191
  %193 = shl i32 %187, %192
  %194 = sext i32 %193 to i64
  %195 = getelementptr inbounds i8, ptr %183, i64 %194
  %196 = load ptr, ptr %2, align 8, !tbaa !18
  %197 = getelementptr inbounds nuw %struct.MpegEncContext, ptr %196, i32 0, i32 88
  %198 = getelementptr inbounds [3 x ptr], ptr %197, i64 0, i64 1
  store ptr %195, ptr %198, align 8, !tbaa !4
  %199 = load ptr, ptr %2, align 8, !tbaa !18
  %200 = getelementptr inbounds nuw %struct.MpegEncContext, ptr %199, i32 0, i32 42
  %201 = getelementptr inbounds nuw %struct.MPVWorkPicture, ptr %200, i32 0, i32 0
  %202 = getelementptr inbounds [3 x ptr], ptr %201, i64 0, i64 2
  %203 = load ptr, ptr %202, align 8, !tbaa !4
  %204 = load ptr, ptr %2, align 8, !tbaa !18
  %205 = getelementptr inbounds nuw %struct.MpegEncContext, ptr %204, i32 0, i32 82
  %206 = load i32, ptr %205, align 4, !tbaa !135
  %207 = sub i32 %206, 1
  %208 = load i32, ptr %5, align 4, !tbaa !13
  %209 = load ptr, ptr %2, align 8, !tbaa !18
  %210 = getelementptr inbounds nuw %struct.MpegEncContext, ptr %209, i32 0, i32 148
  %211 = load i32, ptr %210, align 8, !tbaa !138
  %212 = sub nsw i32 %208, %211
  %213 = shl i32 %207, %212
  %214 = sext i32 %213 to i64
  %215 = getelementptr inbounds i8, ptr %203, i64 %214
  %216 = load ptr, ptr %2, align 8, !tbaa !18
  %217 = getelementptr inbounds nuw %struct.MpegEncContext, ptr %216, i32 0, i32 88
  %218 = getelementptr inbounds [3 x ptr], ptr %217, i64 0, i64 2
  store ptr %215, ptr %218, align 8, !tbaa !4
  %219 = load ptr, ptr %2, align 8, !tbaa !18
  %220 = getelementptr inbounds nuw %struct.MpegEncContext, ptr %219, i32 0, i32 137
  %221 = load i32, ptr %220, align 4, !tbaa !71
  %222 = icmp eq i32 %221, 3
  br i1 %222, label %223, label %271

223:                                              ; preds = %1
  %224 = load ptr, ptr %2, align 8, !tbaa !18
  %225 = getelementptr inbounds nuw %struct.MpegEncContext, ptr %224, i32 0, i32 83
  %226 = load i32, ptr %225, align 8, !tbaa !136
  %227 = load i32, ptr %3, align 4, !tbaa !13
  %228 = mul nsw i32 %226, %227
  %229 = load i32, ptr %6, align 4, !tbaa !13
  %230 = shl i32 %228, %229
  %231 = load ptr, ptr %2, align 8, !tbaa !18
  %232 = getelementptr inbounds nuw %struct.MpegEncContext, ptr %231, i32 0, i32 88
  %233 = getelementptr inbounds [3 x ptr], ptr %232, i64 0, i64 0
  %234 = load ptr, ptr %233, align 8, !tbaa !4
  %235 = sext i32 %230 to i64
  %236 = getelementptr inbounds i8, ptr %234, i64 %235
  store ptr %236, ptr %233, align 8, !tbaa !4
  %237 = load ptr, ptr %2, align 8, !tbaa !18
  %238 = getelementptr inbounds nuw %struct.MpegEncContext, ptr %237, i32 0, i32 83
  %239 = load i32, ptr %238, align 8, !tbaa !136
  %240 = load i32, ptr %4, align 4, !tbaa !13
  %241 = mul nsw i32 %239, %240
  %242 = load i32, ptr %6, align 4, !tbaa !13
  %243 = load ptr, ptr %2, align 8, !tbaa !18
  %244 = getelementptr inbounds nuw %struct.MpegEncContext, ptr %243, i32 0, i32 149
  %245 = load i32, ptr %244, align 4, !tbaa !139
  %246 = sub nsw i32 %242, %245
  %247 = shl i32 %241, %246
  %248 = load ptr, ptr %2, align 8, !tbaa !18
  %249 = getelementptr inbounds nuw %struct.MpegEncContext, ptr %248, i32 0, i32 88
  %250 = getelementptr inbounds [3 x ptr], ptr %249, i64 0, i64 1
  %251 = load ptr, ptr %250, align 8, !tbaa !4
  %252 = sext i32 %247 to i64
  %253 = getelementptr inbounds i8, ptr %251, i64 %252
  store ptr %253, ptr %250, align 8, !tbaa !4
  %254 = load ptr, ptr %2, align 8, !tbaa !18
  %255 = getelementptr inbounds nuw %struct.MpegEncContext, ptr %254, i32 0, i32 83
  %256 = load i32, ptr %255, align 8, !tbaa !136
  %257 = load i32, ptr %4, align 4, !tbaa !13
  %258 = mul nsw i32 %256, %257
  %259 = load i32, ptr %6, align 4, !tbaa !13
  %260 = load ptr, ptr %2, align 8, !tbaa !18
  %261 = getelementptr inbounds nuw %struct.MpegEncContext, ptr %260, i32 0, i32 149
  %262 = load i32, ptr %261, align 4, !tbaa !139
  %263 = sub nsw i32 %259, %262
  %264 = shl i32 %258, %263
  %265 = load ptr, ptr %2, align 8, !tbaa !18
  %266 = getelementptr inbounds nuw %struct.MpegEncContext, ptr %265, i32 0, i32 88
  %267 = getelementptr inbounds [3 x ptr], ptr %266, i64 0, i64 2
  %268 = load ptr, ptr %267, align 8, !tbaa !4
  %269 = sext i32 %264 to i64
  %270 = getelementptr inbounds i8, ptr %268, i64 %269
  store ptr %270, ptr %267, align 8, !tbaa !4
  br label %322

271:                                              ; preds = %1
  %272 = load ptr, ptr %2, align 8, !tbaa !18
  %273 = getelementptr inbounds nuw %struct.MpegEncContext, ptr %272, i32 0, i32 83
  %274 = load i32, ptr %273, align 8, !tbaa !136
  %275 = ashr i32 %274, 1
  %276 = load i32, ptr %3, align 4, !tbaa !13
  %277 = mul nsw i32 %275, %276
  %278 = load i32, ptr %6, align 4, !tbaa !13
  %279 = shl i32 %277, %278
  %280 = load ptr, ptr %2, align 8, !tbaa !18
  %281 = getelementptr inbounds nuw %struct.MpegEncContext, ptr %280, i32 0, i32 88
  %282 = getelementptr inbounds [3 x ptr], ptr %281, i64 0, i64 0
  %283 = load ptr, ptr %282, align 8, !tbaa !4
  %284 = sext i32 %279 to i64
  %285 = getelementptr inbounds i8, ptr %283, i64 %284
  store ptr %285, ptr %282, align 8, !tbaa !4
  %286 = load ptr, ptr %2, align 8, !tbaa !18
  %287 = getelementptr inbounds nuw %struct.MpegEncContext, ptr %286, i32 0, i32 83
  %288 = load i32, ptr %287, align 8, !tbaa !136
  %289 = ashr i32 %288, 1
  %290 = load i32, ptr %4, align 4, !tbaa !13
  %291 = mul nsw i32 %289, %290
  %292 = load i32, ptr %6, align 4, !tbaa !13
  %293 = load ptr, ptr %2, align 8, !tbaa !18
  %294 = getelementptr inbounds nuw %struct.MpegEncContext, ptr %293, i32 0, i32 149
  %295 = load i32, ptr %294, align 4, !tbaa !139
  %296 = sub nsw i32 %292, %295
  %297 = shl i32 %291, %296
  %298 = load ptr, ptr %2, align 8, !tbaa !18
  %299 = getelementptr inbounds nuw %struct.MpegEncContext, ptr %298, i32 0, i32 88
  %300 = getelementptr inbounds [3 x ptr], ptr %299, i64 0, i64 1
  %301 = load ptr, ptr %300, align 8, !tbaa !4
  %302 = sext i32 %297 to i64
  %303 = getelementptr inbounds i8, ptr %301, i64 %302
  store ptr %303, ptr %300, align 8, !tbaa !4
  %304 = load ptr, ptr %2, align 8, !tbaa !18
  %305 = getelementptr inbounds nuw %struct.MpegEncContext, ptr %304, i32 0, i32 83
  %306 = load i32, ptr %305, align 8, !tbaa !136
  %307 = ashr i32 %306, 1
  %308 = load i32, ptr %4, align 4, !tbaa !13
  %309 = mul nsw i32 %307, %308
  %310 = load i32, ptr %6, align 4, !tbaa !13
  %311 = load ptr, ptr %2, align 8, !tbaa !18
  %312 = getelementptr inbounds nuw %struct.MpegEncContext, ptr %311, i32 0, i32 149
  %313 = load i32, ptr %312, align 4, !tbaa !139
  %314 = sub nsw i32 %310, %313
  %315 = shl i32 %309, %314
  %316 = load ptr, ptr %2, align 8, !tbaa !18
  %317 = getelementptr inbounds nuw %struct.MpegEncContext, ptr %316, i32 0, i32 88
  %318 = getelementptr inbounds [3 x ptr], ptr %317, i64 0, i64 2
  %319 = load ptr, ptr %318, align 8, !tbaa !4
  %320 = sext i32 %315 to i64
  %321 = getelementptr inbounds i8, ptr %319, i64 %320
  store ptr %321, ptr %318, align 8, !tbaa !4
  br label %322

322:                                              ; preds = %271, %223
  call void @llvm.lifetime.end.p0(i64 4, ptr %6) #7
  call void @llvm.lifetime.end.p0(i64 4, ptr %5) #7
  call void @llvm.lifetime.end.p0(i64 4, ptr %4) #7
  call void @llvm.lifetime.end.p0(i64 4, ptr %3) #7
  ret void
}