; Function Attrs: mustprogress nofree norecurse nosync nounwind willreturn memory(read, argmem: readwrite, inaccessiblemem: none) uwtable
define void @ff_init_block_index(ptr noundef captures(none) initializes((3364, 3388), (3416, 3440)) %0) local_unnamed_addr #9 {
  %2 = getelementptr inbounds nuw i8, ptr %0, i64 1160
  %3 = getelementptr inbounds nuw i8, ptr %0, i64 1184
  %4 = load i64, ptr %3, align 8, !tbaa !127
  %5 = getelementptr inbounds nuw i8, ptr %0, i64 1192
  %6 = load i64, ptr %5, align 8, !tbaa !127
  %7 = trunc i64 %6 to i32
  %8 = getelementptr inbounds nuw i8, ptr %0, i64 472
  %9 = load ptr, ptr %8, align 8, !tbaa !42
  %10 = getelementptr inbounds nuw i8, ptr %9, i64 652
  %11 = load i32, ptr %10, align 4, !tbaa !119
  %12 = icmp sgt i32 %11, 8
  %13 = select i1 %12, i32 5, i32 4
  %14 = getelementptr inbounds nuw i8, ptr %9, i64 724
  %15 = load i32, ptr %14, align 4, !tbaa !128
  %16 = sub nsw i32 %13, %15
  %17 = sub nsw i32 4, %15
  %18 = getelementptr inbounds nuw i8, ptr %0, i64 552
  %19 = load i32, ptr %18, align 8, !tbaa !55
  %20 = getelementptr inbounds nuw i8, ptr %0, i64 3352
  %21 = load i32, ptr %20, align 8, !tbaa !126
  %22 = shl nsw i32 %21, 1
  %23 = mul nsw i32 %22, %19
  %24 = getelementptr inbounds nuw i8, ptr %0, i64 3348
  %25 = load i32, ptr %24, align 4, !tbaa !125
  %26 = shl nsw i32 %25, 1
  %27 = add i32 %26, -2
  %28 = add i32 %27, %23
  %29 = getelementptr inbounds nuw i8, ptr %0, i64 3364
  store i32 %28, ptr %29, align 4, !tbaa !61
  %30 = add i32 %26, -1
  %31 = add i32 %30, %23
  %32 = getelementptr inbounds nuw i8, ptr %0, i64 3368
  store i32 %31, ptr %32, align 4, !tbaa !61
  %33 = or disjoint i32 %22, 1
  %34 = mul nsw i32 %33, %19
  %35 = add i32 %27, %34
  %36 = getelementptr inbounds nuw i8, ptr %0, i64 3372
  store i32 %35, ptr %36, align 4, !tbaa !61
  %37 = add i32 %30, %34
  %38 = getelementptr inbounds nuw i8, ptr %0, i64 3376
  store i32 %37, ptr %38, align 4, !tbaa !61
  %39 = getelementptr inbounds nuw i8, ptr %0, i64 548
  %40 = load i32, ptr %39, align 4, !tbaa !56
  %41 = add nsw i32 %21, 1
  %42 = mul nsw i32 %40, %41
  %43 = getelementptr inbounds nuw i8, ptr %0, i64 544
  %44 = load i32, ptr %43, align 8, !tbaa !47
  %45 = shl i32 %19, 1
  %46 = mul i32 %45, %44
  %47 = add i32 %25, -1
  %48 = add i32 %47, %42
  %49 = add i32 %48, %46
  %50 = getelementptr inbounds nuw i8, ptr %0, i64 3380
  store i32 %49, ptr %50, align 4, !tbaa !61
  %51 = add i32 %21, 2
  %52 = add i32 %51, %44
  %53 = mul nsw i32 %52, %40
  %54 = add i32 %47, %46
  %55 = add i32 %54, %53
  %56 = getelementptr inbounds nuw i8, ptr %0, i64 3384
  store i32 %55, ptr %56, align 4, !tbaa !61
  %57 = load ptr, ptr %2, align 8, !tbaa !60
  %58 = shl i32 %47, %16
  %59 = sext i32 %58 to i64
  %60 = getelementptr inbounds i8, ptr %57, i64 %59
  %61 = getelementptr inbounds nuw i8, ptr %0, i64 3416
  %62 = getelementptr inbounds nuw i8, ptr %0, i64 1168
  %63 = load ptr, ptr %62, align 8, !tbaa !60
  %64 = getelementptr inbounds nuw i8, ptr %0, i64 4256
  %65 = load i32, ptr %64, align 8, !tbaa !129
  %66 = sub nsw i32 %16, %65
  %67 = shl i32 %47, %66
  %68 = sext i32 %67 to i64
  %69 = getelementptr inbounds i8, ptr %63, i64 %68
  %70 = getelementptr inbounds nuw i8, ptr %0, i64 3424
  %71 = getelementptr inbounds nuw i8, ptr %0, i64 1176
  %72 = load ptr, ptr %71, align 8, !tbaa !60
  %73 = getelementptr inbounds i8, ptr %72, i64 %68
  %74 = getelementptr inbounds nuw i8, ptr %0, i64 3432
  %75 = getelementptr inbounds nuw i8, ptr %0, i64 4212
  %76 = load i32, ptr %75, align 4, !tbaa !66
  %77 = icmp ne i32 %76, 3
  %78 = zext i1 %77 to i32
  %.sink85 = ashr i32 %21, %78
  %79 = mul nsw i32 %.sink85, %7
  %80 = getelementptr inbounds nuw i8, ptr %0, i64 4260
  %81 = load i32, ptr %80, align 4, !tbaa !130
  %82 = sub nsw i32 %17, %81
  %83 = shl i32 %79, %82
  %84 = trunc i64 %4 to i32
  %.pn79 = mul nsw i32 %.sink85, %84
  %.pn78.in = shl i32 %.pn79, %17
  %.pn78 = sext i32 %.pn78.in to i64
  %.sink = getelementptr inbounds i8, ptr %60, i64 %.pn78
  store ptr %.sink, ptr %61, align 8, !tbaa !60
  %.pn = sext i32 %83 to i64
  %storemerge76 = getelementptr inbounds i8, ptr %69, i64 %.pn
  store ptr %storemerge76, ptr %70, align 8, !tbaa !60
  %storemerge = getelementptr inbounds i8, ptr %73, i64 %.pn
  store ptr %storemerge, ptr %74, align 8, !tbaa !60
  ret void
}